Certificate:
    Data:
        Version: 3 (0x2)
        Serial Number: 30 (0x1e)
    Signature Algorithm: sha1WithRSAEncryption
        Issuer: O=Grid, OU=GlobusTest, OU=simpleCA-grid-misc, CN=Globus Simple CA
        Validity
            Not Before: Sep 26 08:02:01 2020 GMT
            Not After : Sep 26 08:02:01 2021 GMT
        Subject: O=Grid, OU=GlobusTest, OU=simpleCA-grid-misc, CN=host/c7-minimal-vm.local
        Subject Public Key Info:
            Public Key Algorithm: rsaEncryption
                Public-Key: (2048 bit)
                Modulus:
                    00:e9:a3:26:84:63:10:6d:c2:5b:23:90:ba:6d:c2:
                    80:29:95:eb:f8:56:5a:1f:e6:37:ac:36:52:6b:6d:
                    60:5a:6a:11:11:fc:58:d3:42:cc:8a:87:8f:e4:83:
                    03:c9:9c:59:7d:71:dd:27:b6:70:89:26:5b:69:a7:
                    bb:c7:ce:f2:22:2e:f1:87:6a:33:83:a8:6a:67:29:
                    9d:c8:ac:d4:e4:cb:09:8a:7f:81:5f:43:9b:81:6a:
                    5b:8c:01:16:1a:3e:a6:bb:5b:5c:36:dc:0f:88:11:
                    dd:ad:85:ee:b7:cc:f9:91:0f:41:3f:df:d9:c2:51:
                    47:5c:b4:02:cf:6e:6d:d3:e7:d4:9e:ec:70:7e:99:
                    ad:43:08:2a:cc:89:f6:b9:f8:9b:4f:c7:1a:8e:2c:
                    7d:43:29:5d:07:4d:63:bd:87:41:e4:ce:a6:29:db:
                    38:bd:b9:6d:ee:b2:ff:2d:eb:7b:47:95:d0:d7:13:
                    9e:56:9b:c8:82:11:9a:a3:fc:b4:92:ea:24:50:4e:
                    9c:97:20:93:e3:27:00:9c:dc:18:64:4f:4a:0c:11:
                    e3:a2:1e:37:be:bb:2b:ee:e8:d8:3e:0e:a9:58:11:
                    a3:d9:cf:c7:2e:2c:f8:52:c6:1a:e8:07:79:57:cb:
                    26:26:50:bc:d0:b2:99:ee:ac:ec:30:ef:f1:2a:cd:
                    a1:cb
                Exponent: 65537 (0x10001)
        X509v3 extensions:
            Netscape Cert Type: 
                SSL Client, SSL Server, S/MIME, Object Signing
            X509v3 Subject Alternative Name: 
                DNS:c7-minimal-vm.local
    Signature Algorithm: sha1WithRSAEncryption
         b5:b4:fc:1a:f0:7b:ff:36:82:03:08:df:1c:84:72:f6:23:36:
         1b:9b:a7:7d:c5:a6:b6:73:75:11:25:ba:3e:b4:0d:8f:1f:20:
         a2:a2:fe:93:ec:de:52:5d:06:e0:af:1c:c2:c9:ed:3f:65:5f:
         5d:20:ef:ab:fb:4e:97:a2:9b:21:82:ae:e6:60:96:77:a1:30:
         3e:17:32:14:63:49:e4:c9:5d:9a:ef:92:a0:56:fc:a2:48:92:
         50:7e:d8:2c:3d:84:d2:03:7d:95:6a:d6:64:80:94:57:11:8e:
         f2:87:53:6a:6a:1b:74:35:32:be:ee:c8:f8:37:49:80:a8:03:
         5e:5b:97:c9:ec:36:49:f5:ca:ae:59:a6:47:58:60:4b:e6:64:
         1b:1a:70:07:f4:59:61:b1:52:71:c5:b3:f1:a6:a2:80:4d:86:
         ec:a0:5e:72:41:d2:89:44:38:7e:d4:28:53:03:20:c7:41:32:
         6a:b3:92:6a:ad:4a:01:15:18:46:8b:97:3f:b0:d2:5b:10:47:
         41:07:ad:b9:3c:84:9c:9d:7b:98:90:29:ec:41:d1:de:3a:27:
         5a:a1:50:91:5c:4b:95:6d:5b:b0:06:44:d6:8d:a6:d5:8a:bd:
         79:4c:10:44:a3:bd:e8:b9:46:b6:57:16:9e:17:cd:8d:84:d3:
         52:32:d1:fd:bd:c2:33:de:15:30:08:94:b1:71:0f:14:3a:48:
         40:92:dc:c5:93:42:6d:76:16:ac:c9:7b:f1:5a:96:ea:cf:8d:
         8d:88:a4:10:9d:90:d9:2e:b4:29:90:bc:66:0f:43:f4:9f:30:
         2c:79:2a:ea:60:72:f7:b3:a7:c9:da:bb:dc:81:2d:6d:7a:94:
         8d:99:15:99:48:b6:e3:d9:7b:8d:0a:27:4c:56:79:f2:b9:2e:
         e4:0e:a4:47:9b:ef:9e:61:67:9c:aa:97:c0:72:11:a7:b5:3c:
         58:5c:5d:f2:f3:ea:69:61:f5:65:5d:e6:8c:74:73:e2:90:1a:
         4a:78:82:1f:20:1e:c2:24:67:5e:53:1e:a2:5e:81:63:d6:02:
         85:3b:62:92:e0:1f:5a:37:70:02:c4:9d:c7:ef:a9:6a:93:4f:
         83:b4:52:ca:04:31:30:95:1b:fd:c5:36:74:1b:f2:33:64:58:
         f6:92:fd:6f:cd:8c:4b:37:8c:ad:43:df:a4:10:74:1d:a8:2d:
         7c:6e:ec:0a:91:c2:e0:ca:7b:3a:3c:6a:fa:13:84:2c:60:01:
         78:0d:11:0a:b7:dd:76:50:c4:47:8f:b8:79:5c:57:c0:59:cb:
         62:e5:a3:0d:3a:a3:46:77:68:1b:d4:14:91:04:73:12:ef:c2:
         e5:c8:cb:79:1c:ea:8d:bd
-----BEGIN CERTIFICATE-----
MIIEcDCCAligAwIBAgIBHjANBgkqhkiG9w0BAQUFADBcMQ0wCwYDVQQKDARHcmlk
MRMwEQYDVQQLDApHbG9idXNUZXN0MRswGQYDVQQLDBJzaW1wbGVDQS1ncmlkLW1p
c2MxGTAXBgNVBAMMEEdsb2J1cyBTaW1wbGUgQ0EwHhcNMjAwOTI2MDgwMjAxWhcN
MjEwOTI2MDgwMjAxWjBkMQ0wCwYDVQQKDARHcmlkMRMwEQYDVQQLDApHbG9idXNU
ZXN0MRswGQYDVQQLDBJzaW1wbGVDQS1ncmlkLW1pc2MxITAfBgNVBAMMGGhvc3Qv
YzctbWluaW1hbC12bS5sb2NhbDCCASIwDQYJKoZIhvcNAQEBBQADggEPADCCAQoC
ggEBAOmjJoRjEG3CWyOQum3CgCmV6/hWWh/mN6w2UmttYFpqERH8WNNCzIqHj+SD
A8mcWX1x3Se2cIkmW2mnu8fO8iIu8YdqM4Ooamcpncis1OTLCYp/gV9Dm4FqW4wB
Fho+prtbXDbcD4gR3a2F7rfM+ZEPQT/f2cJRR1y0As9ubdPn1J7scH6ZrUMIKsyJ
9rn4m0/HGo4sfUMpXQdNY72HQeTOpinbOL25be6y/y3re0eV0NcTnlabyIIRmqP8
tJLqJFBOnJcgk+MnAJzcGGRPSgwR46IeN767K+7o2D4OqVgRo9nPxy4s+FLGGugH
eVfLJiZQvNCyme6s7DDv8SrNocsCAwEAAaM1MDMwEQYJYIZIAYb4QgEBBAQDAgTw
MB4GA1UdEQQXMBWCE2M3LW1pbmltYWwtdm0ubG9jYWwwDQYJKoZIhvcNAQEFBQAD
ggIBALW0/Brwe/82ggMI3xyEcvYjNhubp33FprZzdREluj60DY8fIKKi/pPs3lJd
BuCvHMLJ7T9lX10g76v7TpeimyGCruZglnehMD4XMhRjSeTJXZrvkqBW/KJIklB+
2Cw9hNIDfZVq1mSAlFcRjvKHU2pqG3Q1Mr7uyPg3SYCoA15bl8nsNkn1yq5ZpkdY
YEvmZBsacAf0WWGxUnHFs/GmooBNhuygXnJB0olEOH7UKFMDIMdBMmqzkmqtSgEV
GEaLlz+w0lsQR0EHrbk8hJyde5iQKexB0d46J1qhUJFcS5VtW7AGRNaNptWKvXlM
EESjvei5RrZXFp4XzY2E01Iy0f29wjPeFTAIlLFxDxQ6SECS3MWTQm12FqzJe/Fa
lurPjY2IpBCdkNkutCmQvGYPQ/SfMCx5Kupgcvezp8nau9yBLW16lI2ZFZlItuPZ
e40KJ0xWefK5LuQOpEeb755hZ5yql8ByEae1PFhcXfLz6mlh9WVd5ox0c+KQGkp4
gh8gHsIkZ15THqJegWPWAoU7YpLgH1o3cALEncfvqWqTT4O0UsoEMTCVG/3FNnQb
8jNkWPaS/W/NjEs3jK1D36QQdB2oLXxu7AqRwuDKezo8avoThCxgAXgNEQq33XZQ
xEePuHlcV8BZy2Llow06o0Z3aBvUFJEEcxLvwuXIy3kc6o29
-----END CERTIFICATE-----
