Certificate:
    Data:
        Version: 3 (0x2)
        Serial Number: 34 (0x22)
    Signature Algorithm: sha1WithRSAEncryption
        Issuer: O=Grid, OU=GlobusTest, OU=simpleCA-grid-misc, CN=Globus Simple CA
        Validity
            Not Before: Nov 24 05:30:58 2020 GMT
            Not After : Nov 24 05:30:58 2021 GMT
        Subject: O=Grid, OU=GlobusTest, OU=simpleCA-grid-misc, CN=host/storm-all-in-one-1.local
        Subject Public Key Info:
            Public Key Algorithm: rsaEncryption
                Public-Key: (2048 bit)
                Modulus:
                    00:b5:17:bd:9f:0b:32:86:09:4b:7d:2c:3e:7d:ce:
                    e2:55:0a:df:91:c0:f7:a5:26:5d:14:77:b0:dd:23:
                    63:42:97:00:fc:27:6a:86:4e:16:d4:1c:3f:ef:50:
                    2e:d0:88:47:72:53:75:0f:b4:31:75:4b:e3:1a:fc:
                    2a:a6:98:9c:6b:00:70:5a:11:ec:8e:d1:a1:d8:fa:
                    97:54:05:f7:c6:95:5f:5f:fa:65:47:e1:71:75:1c:
                    c5:5a:b2:22:be:6a:66:eb:4e:8a:2a:6d:f3:ab:fc:
                    a9:11:88:17:b3:e5:7b:b6:30:46:91:61:22:c5:79:
                    9b:79:13:09:9a:2f:b0:bf:cd:1d:a3:6a:a7:1f:51:
                    44:0b:fb:67:b8:a8:26:e8:88:a5:a2:13:db:d0:2b:
                    34:28:c6:0b:62:00:1e:3d:6f:be:a8:64:5b:48:c7:
                    23:66:88:7a:2d:9e:2f:d7:72:2c:44:e4:a2:b8:92:
                    44:f5:8a:72:b7:1a:62:f0:15:76:b8:c8:be:41:19:
                    a5:49:7d:e7:54:ec:3c:f2:c4:5a:c4:dc:8b:98:a5:
                    60:da:f2:5a:ca:1e:37:f8:07:ac:f8:4c:fb:d6:cb:
                    d7:dd:a3:0e:fd:15:73:83:33:10:af:61:ca:cf:d5:
                    a9:b0:d8:8a:61:92:08:5f:f7:e7:b6:ab:6c:c3:db:
                    17:07
                Exponent: 65537 (0x10001)
        X509v3 extensions:
            Netscape Cert Type: 
                SSL Client, SSL Server, S/MIME, Object Signing
            X509v3 Subject Alternative Name: 
                DNS:storm-all-in-one-1.local
    Signature Algorithm: sha1WithRSAEncryption
         96:de:28:1c:c0:94:9b:01:80:47:27:47:4f:d6:34:8a:97:5f:
         da:02:92:65:5e:3f:b0:ab:d4:bb:47:dc:09:81:6c:22:19:fa:
         bf:70:28:80:dc:92:d6:e3:33:a9:7f:b4:32:df:ab:8c:1d:35:
         f5:8a:87:3f:af:07:57:fb:a8:a2:fc:36:48:0c:19:94:89:9b:
         b6:5a:40:c8:4c:0b:29:93:dc:89:9a:54:f0:62:1b:2b:ac:b9:
         4c:87:b6:6d:7b:d0:23:a3:08:54:72:2f:eb:e3:b9:3c:c6:50:
         58:ae:a0:36:be:a2:62:ba:c3:bf:02:f8:3c:32:30:3a:3e:05:
         ee:c6:fd:01:3e:96:d1:9c:d4:6e:13:5b:38:3f:71:0d:25:49:
         e5:43:72:8d:4a:fb:ce:8b:1e:3a:ab:32:14:5b:cd:89:ae:4a:
         8e:78:44:a1:5e:e8:f3:62:05:ac:d0:20:53:48:09:e1:ca:9d:
         41:a2:ae:c9:35:c0:7a:e5:c5:ab:a0:cb:ed:28:65:05:87:ac:
         80:2d:17:cc:dd:c8:b7:f2:0b:b4:19:9a:97:27:24:30:c6:92:
         3e:73:87:19:8f:3a:38:92:9a:3b:11:11:a5:06:67:ed:15:06:
         2d:5a:03:a2:82:e3:bb:a5:ac:7d:72:ad:49:9a:00:d5:18:61:
         e8:f7:60:d2:7f:3a:3f:39:16:4e:db:c3:33:90:ec:5f:6d:92:
         04:00:a1:bc:69:14:78:d2:0b:32:36:6c:45:f5:c9:6c:79:12:
         43:8e:47:f0:94:c8:69:50:cd:cd:76:03:17:c7:4a:42:b4:1e:
         51:46:34:8b:9e:b8:2f:b8:13:3e:47:98:16:ec:29:1e:a9:43:
         47:04:46:c9:3f:4e:4e:2a:59:17:78:c6:0a:5e:45:24:fc:6b:
         80:58:60:82:4b:66:eb:c8:46:ac:c4:ef:fb:99:fe:78:fb:b9:
         1d:fe:05:6a:0e:de:fc:52:13:96:fd:2e:ce:fc:8e:66:3b:37:
         67:86:78:a3:16:fa:a2:7a:a5:92:52:0c:b4:12:9f:15:c4:93:
         bf:ca:bb:48:05:cc:c2:d6:f5:f1:41:73:fe:a3:73:d6:3c:51:
         79:82:49:fc:2e:07:70:f1:dd:bf:3a:c3:ff:d2:b7:9f:66:85:
         33:58:64:9b:73:20:93:e5:d9:39:a0:42:83:13:72:9f:7f:78:
         d9:95:ee:3f:66:f3:60:9f:63:51:f7:ed:f5:64:bc:15:2e:0b:
         19:da:9a:41:75:5a:76:f2:ab:db:ab:9d:c9:ac:7a:ce:c7:e9:
         a1:8d:74:9d:1c:a5:e1:9f:15:13:e2:0b:80:1f:64:f2:18:87:
         8e:51:b5:25:10:86:7f:b4
-----BEGIN CERTIFICATE-----
MIIEejCCAmKgAwIBAgIBIjANBgkqhkiG9w0BAQUFADBcMQ0wCwYDVQQKDARHcmlk
MRMwEQYDVQQLDApHbG9idXNUZXN0MRswGQYDVQQLDBJzaW1wbGVDQS1ncmlkLW1p
c2MxGTAXBgNVBAMMEEdsb2J1cyBTaW1wbGUgQ0EwHhcNMjAxMTI0MDUzMDU4WhcN
MjExMTI0MDUzMDU4WjBpMQ0wCwYDVQQKDARHcmlkMRMwEQYDVQQLDApHbG9idXNU
ZXN0MRswGQYDVQQLDBJzaW1wbGVDQS1ncmlkLW1pc2MxJjAkBgNVBAMMHWhvc3Qv
c3Rvcm0tYWxsLWluLW9uZS0xLmxvY2FsMIIBIjANBgkqhkiG9w0BAQEFAAOCAQ8A
MIIBCgKCAQEAtRe9nwsyhglLfSw+fc7iVQrfkcD3pSZdFHew3SNjQpcA/Cdqhk4W
1Bw/71Au0IhHclN1D7QxdUvjGvwqppicawBwWhHsjtGh2PqXVAX3xpVfX/plR+Fx
dRzFWrIivmpm606KKm3zq/ypEYgXs+V7tjBGkWEixXmbeRMJmi+wv80do2qnH1FE
C/tnuKgm6IilohPb0Cs0KMYLYgAePW++qGRbSMcjZoh6LZ4v13IsROSiuJJE9Ypy
txpi8BV2uMi+QRmlSX3nVOw88sRaxNyLmKVg2vJayh43+Aes+Ez71svX3aMO/RVz
gzMQr2HKz9WpsNiKYZIIX/fntqtsw9sXBwIDAQABozowODARBglghkgBhvhCAQEE
BAMCBPAwIwYDVR0RBBwwGoIYc3Rvcm0tYWxsLWluLW9uZS0xLmxvY2FsMA0GCSqG
SIb3DQEBBQUAA4ICAQCW3igcwJSbAYBHJ0dP1jSKl1/aApJlXj+wq9S7R9wJgWwi
Gfq/cCiA3JLW4zOpf7Qy36uMHTX1ioc/rwdX+6ii/DZIDBmUiZu2WkDITAspk9yJ
mlTwYhsrrLlMh7Zte9AjowhUci/r47k8xlBYrqA2vqJiusO/Avg8MjA6PgXuxv0B
PpbRnNRuE1s4P3ENJUnlQ3KNSvvOix46qzIUW82JrkqOeEShXujzYgWs0CBTSAnh
yp1Boq7JNcB65cWroMvtKGUFh6yALRfM3ci38gu0GZqXJyQwxpI+c4cZjzo4kpo7
ERGlBmftFQYtWgOiguO7pax9cq1JmgDVGGHo92DSfzo/ORZO28MzkOxfbZIEAKG8
aRR40gsyNmxF9clseRJDjkfwlMhpUM3NdgMXx0pCtB5RRjSLnrgvuBM+R5gW7Cke
qUNHBEbJP05OKlkXeMYKXkUk/GuAWGCCS2bryEasxO/7mf54+7kd/gVqDt78UhOW
/S7O/I5mOzdnhnijFvqieqWSUgy0Ep8VxJO/yrtIBczC1vXxQXP+o3PWPFF5gkn8
Lgdw8d2/OsP/0refZoUzWGSbcyCT5dk5oEKDE3Kff3jZle4/ZvNgn2NR9+31ZLwV
LgsZ2ppBdVp28qvbq53JrHrOx+mhjXSdHKXhnxUT4guAH2TyGIeOUbUlEIZ/tA==
-----END CERTIFICATE-----
