Certificate:
    Data:
        Version: 3 (0x2)
        Serial Number: 35 (0x23)
    Signature Algorithm: sha1WithRSAEncryption
        Issuer: O=Grid, OU=GlobusTest, OU=simpleCA-grid-misc, CN=Globus Simple CA
        Validity
            Not Before: Nov 24 05:35:27 2020 GMT
            Not After : Nov 24 05:35:27 2021 GMT
        Subject: O=Grid, OU=GlobusTest, OU=simpleCA-grid-misc, CN=host/storm-all-in-one-2.local
        Subject Public Key Info:
            Public Key Algorithm: rsaEncryption
                Public-Key: (2048 bit)
                Modulus:
                    00:da:9a:25:65:24:77:62:bf:03:b9:03:23:ef:50:
                    1c:6d:39:0a:dc:7f:51:ff:97:5d:b9:27:44:ae:f5:
                    54:18:43:82:78:0f:18:c1:13:1a:ec:6c:e2:20:ac:
                    39:83:69:96:dd:de:d8:63:08:eb:b1:f5:40:a3:e8:
                    69:3a:4c:45:13:80:2e:3a:20:25:83:55:3f:ef:6c:
                    c4:2c:0f:f8:5a:4d:ae:41:c5:25:d1:3a:94:ba:75:
                    f4:46:ff:90:31:7a:57:13:7b:b2:32:16:96:4b:97:
                    5c:ca:44:6d:d0:72:bd:2b:6b:38:cf:fa:fa:77:3e:
                    cd:30:28:76:09:1d:81:ef:f1:7e:1d:6c:3d:bc:ea:
                    5c:5a:e5:18:10:85:c2:77:de:f6:da:c8:e1:07:5a:
                    45:4c:09:57:ae:ca:2a:ab:3b:8b:36:8a:37:28:a4:
                    9e:b6:c8:05:46:d9:62:68:a1:cd:de:bc:11:5c:69:
                    fc:95:75:bc:3b:91:4f:a5:66:a7:16:7a:e0:9a:a0:
                    1c:a4:94:f0:3f:19:79:ae:f6:3a:86:e6:95:0f:1c:
                    38:eb:7f:35:f7:e8:92:91:c0:b7:93:60:5d:7a:89:
                    2a:71:46:7b:6a:5c:d5:de:29:cf:f3:e5:29:5b:be:
                    69:e7:47:75:3e:e8:ee:86:d9:8b:1f:74:14:1a:bd:
                    5c:69
                Exponent: 65537 (0x10001)
        X509v3 extensions:
            Netscape Cert Type: 
                SSL Client, SSL Server, S/MIME, Object Signing
            X509v3 Subject Alternative Name: 
                DNS:storm-all-in-one-2.local
    Signature Algorithm: sha1WithRSAEncryption
         a6:98:e1:bd:b3:54:f8:ab:b8:a8:41:39:d3:17:86:8f:e3:cf:
         92:55:80:22:10:10:72:5b:a0:37:45:e8:35:29:c6:86:c2:2c:
         11:b0:b1:4f:97:5b:93:2a:44:3d:77:c9:a8:f5:57:12:40:4a:
         61:16:52:0c:54:59:fe:88:f5:01:b9:56:0b:ab:26:de:ad:4d:
         d9:24:58:3d:97:1c:d2:3a:6c:61:90:25:61:ce:4e:f2:95:ae:
         0b:b1:99:52:0a:69:a7:30:71:64:79:06:64:c5:02:f4:0a:8e:
         5b:d7:cc:51:f8:e1:7c:79:07:55:5e:b5:38:f5:16:5f:6a:ce:
         58:be:c2:8d:00:3e:f3:22:02:88:ac:0c:7d:ff:fb:93:a9:3f:
         f5:9c:2b:22:6d:74:f3:2a:09:25:12:f5:9d:2c:15:49:55:3b:
         ea:b7:80:51:e0:4f:16:5a:bb:f7:a0:f7:ba:a3:f3:f1:47:11:
         c4:0c:81:51:3b:88:e0:a9:8d:63:60:da:b9:a9:f1:3a:40:44:
         46:90:44:8c:49:f4:c6:a1:f2:b8:8c:aa:19:bd:62:31:11:68:
         aa:69:23:1c:e8:af:eb:d6:d5:33:8a:93:f2:ac:87:da:aa:f7:
         4f:4d:37:dc:d3:83:09:0b:e3:c7:48:0f:e4:cb:30:cc:1f:a7:
         17:b5:04:88:a8:d3:d1:06:06:bb:b4:2d:4a:fc:90:81:0a:c4:
         fe:e7:23:69:ae:31:30:49:c8:f9:d2:a4:11:60:7a:34:d5:f5:
         f2:33:51:46:e1:32:3f:1d:9d:52:ea:3b:f0:92:00:aa:48:ec:
         62:fe:29:14:07:15:60:ac:f8:82:44:18:b3:6e:30:4a:17:2d:
         4f:66:18:fb:bb:da:62:97:9b:18:b6:97:57:76:ab:d2:14:47:
         81:1a:3c:48:86:39:1a:2a:b4:8f:2a:4a:fd:b8:45:7c:3c:bb:
         0b:87:87:dc:c0:9a:79:d3:80:40:f1:4b:9c:5e:b1:6a:89:ac:
         4f:0f:e9:77:cc:60:ac:a8:f5:25:50:77:d3:16:04:f6:d2:86:
         1a:79:e4:9d:69:9b:dd:36:50:70:fa:d7:7e:ff:68:a3:e1:36:
         51:2f:40:4d:13:1c:f3:ee:46:4b:8c:55:d4:98:5b:cd:f1:73:
         f5:f2:5c:55:28:c3:1e:15:b7:c8:93:bf:60:31:60:6d:b6:44:
         7f:72:b1:bb:7c:5d:46:2e:dc:14:1e:78:34:25:9a:34:57:93:
         99:e0:5c:11:6b:a1:4f:09:79:9e:31:27:14:a4:10:a9:94:9c:
         7c:73:15:1a:72:92:ae:83:4e:5d:2d:61:ac:43:22:eb:02:8e:
         95:e4:33:e7:87:dd:0b:2c
-----BEGIN CERTIFICATE-----
MIIEejCCAmKgAwIBAgIBIzANBgkqhkiG9w0BAQUFADBcMQ0wCwYDVQQKDARHcmlk
MRMwEQYDVQQLDApHbG9idXNUZXN0MRswGQYDVQQLDBJzaW1wbGVDQS1ncmlkLW1p
c2MxGTAXBgNVBAMMEEdsb2J1cyBTaW1wbGUgQ0EwHhcNMjAxMTI0MDUzNTI3WhcN
MjExMTI0MDUzNTI3WjBpMQ0wCwYDVQQKDARHcmlkMRMwEQYDVQQLDApHbG9idXNU
ZXN0MRswGQYDVQQLDBJzaW1wbGVDQS1ncmlkLW1pc2MxJjAkBgNVBAMMHWhvc3Qv
c3Rvcm0tYWxsLWluLW9uZS0yLmxvY2FsMIIBIjANBgkqhkiG9w0BAQEFAAOCAQ8A
MIIBCgKCAQEA2polZSR3Yr8DuQMj71AcbTkK3H9R/5dduSdErvVUGEOCeA8YwRMa
7GziIKw5g2mW3d7YYwjrsfVAo+hpOkxFE4AuOiAlg1U/72zELA/4Wk2uQcUl0TqU
unX0Rv+QMXpXE3uyMhaWS5dcykRt0HK9K2s4z/r6dz7NMCh2CR2B7/F+HWw9vOpc
WuUYEIXCd9722sjhB1pFTAlXrsoqqzuLNoo3KKSetsgFRtliaKHN3rwRXGn8lXW8
O5FPpWanFnrgmqAcpJTwPxl5rvY6huaVDxw463819+iSkcC3k2BdeokqcUZ7alzV
3inP8+UpW75p50d1PujuhtmLH3QUGr1caQIDAQABozowODARBglghkgBhvhCAQEE
BAMCBPAwIwYDVR0RBBwwGoIYc3Rvcm0tYWxsLWluLW9uZS0yLmxvY2FsMA0GCSqG
SIb3DQEBBQUAA4ICAQCmmOG9s1T4q7ioQTnTF4aP48+SVYAiEBByW6A3Reg1KcaG
wiwRsLFPl1uTKkQ9d8mo9VcSQEphFlIMVFn+iPUBuVYLqyberU3ZJFg9lxzSOmxh
kCVhzk7yla4LsZlSCmmnMHFkeQZkxQL0Co5b18xR+OF8eQdVXrU49RZfas5YvsKN
AD7zIgKIrAx9//uTqT/1nCsibXTzKgklEvWdLBVJVTvqt4BR4E8WWrv3oPe6o/Px
RxHEDIFRO4jgqY1jYNq5qfE6QERGkESMSfTGofK4jKoZvWIxEWiqaSMc6K/r1tUz
ipPyrIfaqvdPTTfc04MJC+PHSA/kyzDMH6cXtQSIqNPRBga7tC1K/JCBCsT+5yNp
rjEwScj50qQRYHo01fXyM1FG4TI/HZ1S6jvwkgCqSOxi/ikUBxVgrPiCRBizbjBK
Fy1PZhj7u9pil5sYtpdXdqvSFEeBGjxIhjkaKrSPKkr9uEV8PLsLh4fcwJp504BA
8UucXrFqiaxPD+l3zGCsqPUlUHfTFgT20oYaeeSdaZvdNlBw+td+/2ij4TZRL0BN
Exzz7kZLjFXUmFvN8XP18lxVKMMeFbfIk79gMWBttkR/crG7fF1GLtwUHng0JZo0
V5OZ4FwRa6FPCXmeMScUpBCplJx8cxUacpKug05dLWGsQyLrAo6V5DPnh90LLA==
-----END CERTIFICATE-----
